; Function Attrs: mustprogress uwtable
define hidden void @_ZN2cv16FeatureEvaluator7getMatsEv(ptr noundef nonnull align 8 dereferenceable(576) %0) unnamed_addr #5 align 2 personality ptr @__gxx_personality_v0 {
  %2 = alloca %"class.cv::_OutputArray", align 8
  %3 = getelementptr inbounds nuw i8, ptr %0, i64 8
  %4 = load i32, ptr %3, align 8, !tbaa !102
  %5 = and i32 %4, 1
  %.not = icmp eq i32 %5, 0
  br i1 %.not, label %6, label %13

6:                                                ; preds = %1
  %7 = getelementptr inbounds nuw i8, ptr %0, i64 320
  call void @llvm.lifetime.start.p0(i64 24, ptr nonnull %2) #32
  %8 = getelementptr inbounds nuw i8, ptr %0, i64 48
  %9 = getelementptr inbounds nuw i8, ptr %2, i64 8
  %10 = getelementptr inbounds nuw i8, ptr %2, i64 16
  store i64 0, ptr %10, align 8
  store i32 33619968, ptr %2, align 8, !tbaa !115
  store ptr %8, ptr %9, align 8, !tbaa !117
  call void @_ZNK2cv4UMat6copyToERKNS_12_OutputArrayE(ptr noundef nonnull align 8 dereferenceable(80) %7, ptr noundef nonnull align 8 dereferenceable(24) %2)
  call void @llvm.lifetime.end.p0(i64 24, ptr nonnull %2) #32
  %11 = load i32, ptr %3, align 8, !tbaa !102
  %12 = or i32 %11, 1
  store i32 %12, ptr %3, align 8, !tbaa !102
  br label %13

13:                                               ; preds = %6, %1
  ret void
}